(lp0
S'adultery'
p1
aS'advocate'
p2
aS'ancient'
p3
aS'animal'
p4
aS'antiquity'
p5
aS'art'
p6
aS'astrology'
p7
aS'atheism'
p8
aS'author'
p9
aS'authority'
p10
aS'banishment'
p11
aS'bankruptcy'
p12
aS'beauty'
p13
aS'bishop'
p14
aS'book'
p15
aS'boulevart'
p16
aS'bourges'
p17
aS'brahmin'
p18
aS'character'
p19
aS'charlatan'
p20
aS'civil law'
p21
aS'climate'
p22
aS'common sense'
p23
aS'contradiction'
p24
aS'corn'
p25
aS'cromwell'
p26
aS'custom'
p27
aS'democracy'
p28
aS'destiny'
p29
aS'devout'
p30
aS'ecclesiast'
p31
aS'emblem'
p32
aS'envy'
p33
aS'equality'
p34
aS'event'
p35
aS'expiation'
p36
aS'extreme'
p37
aS'ezourveidam'
p38
aS'faith'
p39
aS'false mind'
p40
aS'fatherland'
p41
aS'final causes'
p42
aS'fraud'
p43
aS'free-will'
p44
aS'french'
p45
aS'friendship'
p46
aS'general reflection on man'
p47
aS'god'
p48
aS'government'
p49
aS'helvetia'
p50
aS'history'
p51
aS'ignorance'
p52
aS'impious'
p53
aS'iron mask'
p54
aS'joan of arc'
p55
aS'kiss'
p56
aS'language'
p57
aS'law'
p58
aS'liberty'
p59
aS'library'
p60
aS'limits of the human mind'
p61
aS'local crimes'
p62
aS'love'
p63
aS'luxury'
p64
aS'marriage'
p65
aS'master'
p66
aS'men of letters'
p67
aS'metamorphosis'
p68
aS'milton'
p69
aS'modern'
p70
aS'mohammed'
p71
aS'mountain'
p72
aS'nakedness'
p73
aS'natural law'
p74
aS'nature'
p75
aS'necessary'
p76
aS'new novelties'
p77
aS'omnipotence'
p78
aS'philosopher'
p79
aS'power'
p80
aS'prayer'
p81
aS'precis'
p82
aS'prejudice'
p83
aS'rare'
p84
aS'reason'
p85
aS'religion'
p86
aS'sect'
p87
aS'self-esteem'
p88
aS'soul'
p89
aS'state'
p90
aS'superstition'
p91
aS'tear'
p92
aS'theatre'
p93
aS'theist'
p94
aS'tolerance'
p95
aS'truth'
p96
aS'tyranny'
p97
aS'virtue'
p98
aS'why'
p99
a.